; Function Attrs: mustprogress nofree norecurse nosync nounwind sspstrong willreturn memory(argmem: read) uwtable
define dso_local i32 @scsi_cdb_xfer(ptr noundef readonly captures(none) %buf) local_unnamed_addr #0 {
entry:
  %0 = load i8, ptr %buf, align 1
  %1 = lshr i8 %0, 5
  switch i8 %1, label %return [
    i8 0, label %sw.bb
    i8 1, label %sw.bb3
    i8 2, label %sw.bb3
    i8 4, label %sw.bb5
    i8 5, label %sw.bb10
  ]

sw.bb:                                            ; preds = %entry
  %arrayidx1 = getelementptr i8, ptr %buf, i64 4
  %2 = load i8, ptr %arrayidx1, align 1
  %conv2 = zext i8 %2 to i32
  br label %return

sw.bb3:                                           ; preds = %entry, %entry
  %arrayidx4 = getelementptr i8, ptr %buf, i64 7
  %arrayidx4.val = load i16, ptr %arrayidx4, align 1
  %3 = tail call i16 @llvm.bswap.i16(i16 %arrayidx4.val)
  %conv1.i = zext i16 %3 to i32
  br label %return

sw.bb5:                                           ; preds = %entry
  %arrayidx6 = getelementptr i8, ptr %buf, i64 10
  %arrayidx6.val = load i32, ptr %arrayidx6, align 1
  %4 = tail call i32 @llvm.bswap.i32(i32 %arrayidx6.val)
  br label %return

sw.bb10:                                          ; preds = %entry
  %arrayidx11 = getelementptr i8, ptr %buf, i64 6
  %arrayidx11.val = load i32, ptr %arrayidx11, align 1
  %5 = tail call i32 @llvm.bswap.i32(i32 %arrayidx11.val)
  br label %return

return:                                           ; preds = %entry, %sw.bb10, %sw.bb5, %sw.bb3, %sw.bb
  %retval.0 = phi i32 [ %5, %sw.bb10 ], [ %4, %sw.bb5 ], [ %conv1.i, %sw.bb3 ], [ %conv2, %sw.bb ], [ -1, %entry ]
  ret i32 %retval.0
}